target datalayout = "e-m:e-p270:32:32-p271:32:32-p272:64:64-i64:64-i128:128-f80:128-n8:16:32:64-S128"
target triple = "x86_64-unknown-linux-gnu"

@.str = private unnamed_addr constant [3 x i8] c"fw\00", align 1
@.str.1 = private unnamed_addr constant [3 x i8] c"rg\00", align 1

; Function Attrs: mustprogress nounwind uwtable
define internal noundef signext i8 @_ZL9U_SUCCESS10UErrorCode(i32 noundef %code) #0 {
entry:
  %code.addr = alloca i32, align 4
  store i32 %code, ptr %code.addr, align 4
  %0 = load i32, ptr %code.addr, align 4
  %cmp = icmp sle i32 %0, 0
  %conv = zext i1 %cmp to i8
  ret i8 %conv
}

; Function Attrs: mustprogress uwtable
define void @_ZN6icu_7515ISO8601CalendarC2ERKNS_6LocaleER10UErrorCode(ptr noundef nonnull align 8 dereferenceable(654) %this, ptr noundef nonnull align 8 dereferenceable(217) %aLocale, ptr noundef nonnull align 4 dereferenceable(4) %success) unnamed_addr #1 align 2 personality ptr @__gxx_personality_v0 {
entry:
  %this.addr = alloca ptr, align 8
  %aLocale.addr = alloca ptr, align 8
  %success.addr = alloca ptr, align 8
  %tempStatus = alloca i32, align 4
  %length = alloca i32, align 4
  %exn.slot = alloca ptr, align 8
  %ehselector.slot = alloca i32, align 4
  store ptr %this, ptr %this.addr, align 8
  store ptr %aLocale, ptr %aLocale.addr, align 8
  store ptr %success, ptr %success.addr, align 8
  %this1 = load ptr, ptr %this.addr, align 8
  %0 = load ptr, ptr %aLocale.addr, align 8
  %1 = load ptr, ptr %success.addr, align 8
  call void @_ZN6icu_7517GregorianCalendarC2ERKNS_6LocaleER10UErrorCode(ptr noundef nonnull align 8 dereferenceable(654) %this1, ptr noundef nonnull align 8 dereferenceable(217) %0, ptr noundef nonnull align 4 dereferenceable(4) %1)
  store ptr getelementptr inbounds ({ [61 x ptr] }, ptr @_ZTVN6icu_7515ISO8601CalendarE, i32 0, i32 0, i32 2), ptr %this1, align 8
  store i32 0, ptr %tempStatus, align 4
  %2 = load ptr, ptr %aLocale.addr, align 8
  %call = invoke noundef i32 @_ZNK6icu_756Locale15getKeywordValueEPKcPciR10UErrorCode(ptr noundef nonnull align 8 dereferenceable(217) %2, ptr noundef @.str, ptr noundef null, i32 noundef 0, ptr noundef nonnull align 4 dereferenceable(4) %tempStatus)
          to label %invoke.cont unwind label %lpad

invoke.cont:                                      ; preds = %entry
  %3 = load ptr, ptr %aLocale.addr, align 8
  %call3 = invoke noundef i32 @_ZNK6icu_756Locale15getKeywordValueEPKcPciR10UErrorCode(ptr noundef nonnull align 8 dereferenceable(217) %3, ptr noundef @.str.1, ptr noundef null, i32 noundef 0, ptr noundef nonnull align 4 dereferenceable(4) %tempStatus)
          to label %invoke.cont2 unwind label %lpad

invoke.cont2:                                     ; preds = %invoke.cont
  %add = add nsw i32 %call, %call3
  store i32 %add, ptr %length, align 4
  %4 = load i32, ptr %tempStatus, align 4
  %call5 = invoke noundef signext i8 @_ZL9U_SUCCESS10UErrorCode(i32 noundef %4)
          to label %invoke.cont4 unwind label %lpad

invoke.cont4:                                     ; preds = %invoke.cont2
  %tobool = icmp ne i8 %call5, 0
  br i1 %tobool, label %land.lhs.true, label %if.end

land.lhs.true:                                    ; preds = %invoke.cont4
  %5 = load i32, ptr %length, align 4
  %cmp = icmp eq i32 %5, 0
  br i1 %cmp, label %if.then, label %if.end

if.then:                                          ; preds = %land.lhs.true
  invoke void @_ZN6icu_758Calendar17setFirstDayOfWeekE19UCalendarDaysOfWeek(ptr noundef nonnull align 8 dereferenceable(618) %this1, i32 noundef 2)
          to label %invoke.cont6 unwind label %lpad

invoke.cont6:                                     ; preds = %if.then
  br label %if.end

lpad:                                             ; preds = %if.end, %if.then, %invoke.cont2, %invoke.cont, %entry
  %6 = landingpad { ptr, i32 }
          cleanup
  %7 = extractvalue { ptr, i32 } %6, 0
  store ptr %7, ptr %exn.slot, align 8
  %8 = extractvalue { ptr, i32 } %6, 1
  store i32 %8, ptr %ehselector.slot, align 4
  call void @_ZN6icu_7517GregorianCalendarD2Ev(ptr noundef nonnull align 8 dereferenceable(654) %this1) #4
  br label %eh.resume

if.end:                                           ; preds = %invoke.cont6, %land.lhs.true, %invoke.cont4
  invoke void @_ZN6icu_758Calendar25setMinimalDaysInFirstWeekEh(ptr noundef nonnull align 8 dereferenceable(618) %this1, i8 noundef zeroext 4)
          to label %invoke.cont7 unwind label %lpad

invoke.cont7:                                     ; preds = %if.end
  ret void

eh.resume:                                        ; preds = %lpad
  %exn = load ptr, ptr %exn.slot, align 8
  %sel = load i32, ptr %ehselector.slot, align 4
  %lpad.val = insertvalue { ptr, i32 } poison, ptr %exn, 0
  %lpad.val8 = insertvalue { ptr, i32 } %lpad.val, i32 %sel, 1
  resume { ptr, i32 } %lpad.val8
}