; Function Attrs: mustprogress uwtable
define void @_ZN6icu_7515ISO8601CalendarC2ERKNS_6LocaleER10UErrorCode(ptr noundef nonnull align 8 dereferenceable(654) %this, ptr noundef nonnull align 8 dereferenceable(217) %aLocale, ptr noundef nonnull align 4 dereferenceable(4) %success) unnamed_addr #1 align 2 personality ptr @__gxx_personality_v0 {
entry:
  %tempStatus = alloca i32, align 4
  tail call void @_ZN6icu_7517GregorianCalendarC2ERKNS_6LocaleER10UErrorCode(ptr noundef nonnull align 8 dereferenceable(654) %this, ptr noundef nonnull align 8 dereferenceable(217) %aLocale, ptr noundef nonnull align 4 dereferenceable(4) %success)
  store ptr getelementptr inbounds ({ [61 x ptr] }, ptr @_ZTVN6icu_7515ISO8601CalendarE, i64 0, i32 0, i64 2), ptr %this, align 8
  store i32 0, ptr %tempStatus, align 4
  %call = invoke noundef i32 @_ZNK6icu_756Locale15getKeywordValueEPKcPciR10UErrorCode(ptr noundef nonnull align 8 dereferenceable(217) %aLocale, ptr noundef nonnull @.str, ptr noundef null, i32 noundef 0, ptr noundef nonnull align 4 dereferenceable(4) %tempStatus)
          to label %invoke.cont unwind label %lpad

invoke.cont:                                      ; preds = %entry
  %call3 = invoke noundef i32 @_ZNK6icu_756Locale15getKeywordValueEPKcPciR10UErrorCode(ptr noundef nonnull align 8 dereferenceable(217) %aLocale, ptr noundef nonnull @.str.1, ptr noundef null, i32 noundef 0, ptr noundef nonnull align 4 dereferenceable(4) %tempStatus)
          to label %invoke.cont2 unwind label %lpad

invoke.cont2:                                     ; preds = %invoke.cont
  %0 = load i32, ptr %tempStatus, align 4
  %cmp.i = icmp slt i32 %0, 1
  %add = sub i32 0, %call3
  %cmp = icmp eq i32 %call, %add
  %or.cond = and i1 %cmp, %cmp.i
  br i1 %or.cond, label %if.then, label %if.end

if.then:                                          ; preds = %invoke.cont2
  invoke void @_ZN6icu_758Calendar17setFirstDayOfWeekE19UCalendarDaysOfWeek(ptr noundef nonnull align 8 dereferenceable(618) %this, i32 noundef 2)
          to label %if.end unwind label %lpad

lpad:                                             ; preds = %if.end, %if.then, %invoke.cont, %entry
  %1 = landingpad { ptr, i32 }
          cleanup
  call void @_ZN6icu_7517GregorianCalendarD2Ev(ptr noundef nonnull align 8 dereferenceable(654) %this) #5
  resume { ptr, i32 } %1

if.end:                                           ; preds = %if.then, %invoke.cont2
  invoke void @_ZN6icu_758Calendar25setMinimalDaysInFirstWeekEh(ptr noundef nonnull align 8 dereferenceable(618) %this, i8 noundef zeroext 4)
          to label %invoke.cont7 unwind label %lpad

invoke.cont7:                                     ; preds = %if.end
  ret void
}